target datalayout = "e-m:e-p270:32:32-p271:32:32-p272:64:64-i64:64-i128:128-f80:128-n8:16:32:64-S128"
target triple = "x86_64-pc-linux-gnu"

%struct.H5F_t = type { ptr, ptr, ptr, ptr, i32, ptr, i8, i8, ptr, i32 }
%struct.H5F_shared_t = type { ptr, ptr, ptr, i8, i32, i32, %struct.H5F_mtab_t, ptr, i8, i8, i64, i32, i32, i64, i64, ptr, ptr, %struct.H5AC_cache_config_t, %struct.H5AC_cache_image_config_t, i8, i8, ptr, i64, i32, i8, i64, i64, double, i64, i64, i64, i32, i32, i32, i8, i32, ptr, ptr, ptr, ptr, i8, i8, i8, i64, i64, ptr, ptr, i32, i64, i8, i32, i8, i64, i8, [13 x i32], [13 x i64], [13 x ptr], i8, i64, i64, [7 x i32], [7 x i32], %struct.H5F_blk_aggr_t, %struct.H5F_blk_aggr_t, i64, i64, %struct.H5F_meta_accum_t, i32, i32, [30 x ptr], %struct.H5F_object_flush_t, i8, ptr }
%struct.H5F_mtab_t = type { i32, i32, ptr }
%struct.H5AC_cache_config_t = type { i32, i8, i8, i8, [1025 x i8], i8, i8, i64, double, i64, i64, i64, i32, double, double, i8, i64, i32, double, double, i32, double, double, i8, i64, i32, i8, double, i64, i32 }
%struct.H5AC_cache_image_config_t = type { i32, i8, i8, i32 }
%struct.H5F_blk_aggr_t = type { i64, i64, i64, i64, i64 }
%struct.H5F_meta_accum_t = type { ptr, i64, i64, i64, i64, i64, i8 }
%struct.H5F_object_flush_t = type { ptr, ptr }
%struct.H5G_t = type { ptr, %struct.H5O_loc_t, %struct.H5G_name_t }
%struct.H5O_loc_t = type { ptr, i64, i8 }
%struct.H5G_name_t = type { ptr, ptr, i32 }
%struct.H5G_loc_t = type { ptr, ptr }

@.str = private unnamed_addr constant [101 x i8] c"generated/home/dtcxzyw/WorkSpace/Projects/compilers/llvm-opt-benchmark/bench/hdf5/hdf5/src/H5Groot.c\00", align 1
@__func__.H5G_root_loc = private unnamed_addr constant [13 x i8] c"H5G_root_loc\00", align 1
@H5E_ARGS_g = external global i64, align 8
@H5E_BADVALUE_g = external global i64, align 8
@.str.13 = private unnamed_addr constant [45 x i8] c"unable to get object location for root group\00", align 1
@.str.14 = private unnamed_addr constant [34 x i8] c"unable to get path for root group\00", align 1

; Function Attrs: nounwind uwtable
define ptr @H5G_rootof(ptr noundef %0) #0 {
  %2 = alloca ptr, align 8
  store ptr %0, ptr %2, align 8
  br label %3

3:                                                ; preds = %8, %1
  %4 = load ptr, ptr %2, align 8
  %5 = getelementptr inbounds %struct.H5F_t, ptr %4, i32 0, i32 8
  %6 = load ptr, ptr %5, align 8
  %7 = icmp ne ptr %6, null
  br i1 %7, label %8, label %12

8:                                                ; preds = %3
  %9 = load ptr, ptr %2, align 8
  %10 = getelementptr inbounds %struct.H5F_t, ptr %9, i32 0, i32 8
  %11 = load ptr, ptr %10, align 8
  store ptr %11, ptr %2, align 8
  br label %3

12:                                               ; preds = %3
  %13 = load ptr, ptr %2, align 8
  %14 = getelementptr inbounds %struct.H5F_t, ptr %13, i32 0, i32 2
  %15 = load ptr, ptr %14, align 8
  %16 = getelementptr inbounds %struct.H5F_shared_t, ptr %15, i32 0, i32 37
  %17 = load ptr, ptr %16, align 8
  %18 = getelementptr inbounds %struct.H5G_t, ptr %17, i32 0, i32 1
  %19 = getelementptr inbounds %struct.H5O_loc_t, ptr %18, i32 0, i32 0
  %20 = load ptr, ptr %19, align 8
  %21 = load ptr, ptr %2, align 8
  %22 = icmp ne ptr %20, %21
  br i1 %22, label %23, label %32

23:                                               ; preds = %12
  %24 = load ptr, ptr %2, align 8
  %25 = load ptr, ptr %2, align 8
  %26 = getelementptr inbounds %struct.H5F_t, ptr %25, i32 0, i32 2
  %27 = load ptr, ptr %26, align 8
  %28 = getelementptr inbounds %struct.H5F_shared_t, ptr %27, i32 0, i32 37
  %29 = load ptr, ptr %28, align 8
  %30 = getelementptr inbounds %struct.H5G_t, ptr %29, i32 0, i32 1
  %31 = getelementptr inbounds %struct.H5O_loc_t, ptr %30, i32 0, i32 0
  store ptr %24, ptr %31, align 8
  br label %32

32:                                               ; preds = %23, %12
  %33 = load ptr, ptr %2, align 8
  %34 = getelementptr inbounds %struct.H5F_t, ptr %33, i32 0, i32 2
  %35 = load ptr, ptr %34, align 8
  %36 = getelementptr inbounds %struct.H5F_shared_t, ptr %35, i32 0, i32 37
  %37 = load ptr, ptr %36, align 8
  ret ptr %37
}

; Function Attrs: nounwind uwtable
define i32 @H5G_root_loc(ptr noundef %0, ptr noundef %1) #0 {
  %3 = alloca ptr, align 8
  %4 = alloca ptr, align 8
  %5 = alloca ptr, align 8
  %6 = alloca i32, align 4
  %7 = alloca i8, align 1
  store ptr %0, ptr %3, align 8
  store ptr %1, ptr %4, align 8
  store i32 0, ptr %6, align 4
  store i8 0, ptr %7, align 1
  %8 = load ptr, ptr %3, align 8
  %9 = call ptr @H5G_rootof(ptr noundef %8)
  store ptr %9, ptr %5, align 8
  %10 = load ptr, ptr %5, align 8
  %11 = call ptr @H5G_oloc(ptr noundef %10)
  %12 = load ptr, ptr %4, align 8
  %13 = getelementptr inbounds %struct.H5G_loc_t, ptr %12, i32 0, i32 0
  store ptr %11, ptr %13, align 8
  %14 = icmp eq ptr null, %11
  br i1 %14, label %15, label %30

15:                                               ; preds = %2
  br label %16

16:                                               ; preds = %15
  br label %17

17:                                               ; preds = %16
  br label %18

18:                                               ; preds = %17
  %19 = load i64, ptr @H5E_ARGS_g, align 8
  %20 = load i64, ptr @H5E_BADVALUE_g, align 8
  %21 = call i32 (ptr, ptr, i32, i64, i64, ptr, ...) @H5E_printf_stack(ptr noundef @.str, ptr noundef @__func__.H5G_root_loc, i32 noundef 364, i64 noundef %19, i64 noundef %20, ptr noundef @.str.13)
  br label %22

22:                                               ; preds = %18
  store i8 1, ptr %7, align 1
  %23 = load i8, ptr %7, align 1
  %24 = trunc i8 %23 to i1
  %25 = zext i1 %24 to i8
  store i8 %25, ptr %7, align 1
  br label %26

26:                                               ; preds = %22
  br label %27

27:                                               ; preds = %26
  store i32 -1, ptr %6, align 4
  br label %65

28:                                               ; No predecessors!
  br label %29

29:                                               ; preds = %28
  br label %30

30:                                               ; preds = %29, %2
  %31 = load ptr, ptr %5, align 8
  %32 = call ptr @H5G_nameof(ptr noundef %31)
  %33 = load ptr, ptr %4, align 8
  %34 = getelementptr inbounds %struct.H5G_loc_t, ptr %33, i32 0, i32 1
  store ptr %32, ptr %34, align 8
  %35 = icmp eq ptr null, %32
  br i1 %35, label %36, label %51

36:                                               ; preds = %30
  br label %37

37:                                               ; preds = %36
  br label %38

38:                                               ; preds = %37
  br label %39

39:                                               ; preds = %38
  %40 = load i64, ptr @H5E_ARGS_g, align 8
  %41 = load i64, ptr @H5E_BADVALUE_g, align 8
  %42 = call i32 (ptr, ptr, i32, i64, i64, ptr, ...) @H5E_printf_stack(ptr noundef @.str, ptr noundef @__func__.H5G_root_loc, i32 noundef 366, i64 noundef %40, i64 noundef %41, ptr noundef @.str.14)
  br label %43

43:                                               ; preds = %39
  store i8 1, ptr %7, align 1
  %44 = load i8, ptr %7, align 1
  %45 = trunc i8 %44 to i1
  %46 = zext i1 %45 to i8
  store i8 %46, ptr %7, align 1
  br label %47

47:                                               ; preds = %43
  br label %48

48:                                               ; preds = %47
  store i32 -1, ptr %6, align 4
  br label %65

49:                                               ; No predecessors!
  br label %50

50:                                               ; preds = %49
  br label %51

51:                                               ; preds = %50, %30
  %52 = load ptr, ptr %3, align 8
  %53 = call zeroext i1 @H5F_is_mount(ptr noundef %52)
  br i1 %53, label %64, label %54

54:                                               ; preds = %51
  %55 = load ptr, ptr %3, align 8
  %56 = load ptr, ptr %4, align 8
  %57 = getelementptr inbounds %struct.H5G_loc_t, ptr %56, i32 0, i32 0
  %58 = load ptr, ptr %57, align 8
  %59 = getelementptr inbounds %struct.H5O_loc_t, ptr %58, i32 0, i32 0
  store ptr %55, ptr %59, align 8
  %60 = load ptr, ptr %4, align 8
  %61 = getelementptr inbounds %struct.H5G_loc_t, ptr %60, i32 0, i32 0
  %62 = load ptr, ptr %61, align 8
  %63 = getelementptr inbounds %struct.H5O_loc_t, ptr %62, i32 0, i32 2
  store i8 0, ptr %63, align 8
  br label %64

64:                                               ; preds = %54, %51
  br label %65

65:                                               ; preds = %64, %48, %27
  %66 = load i32, ptr %6, align 4
  ret i32 %66
}