; Function Attrs: nounwind uwtable
define range(i32 -1, 1) i32 @H5G_root_loc(ptr noundef %0, ptr nocapture noundef %1) local_unnamed_addr #1 {
  br label %3

3:                                                ; preds = %3, %2
  %.0.i = phi ptr [ %0, %2 ], [ %5, %3 ]
  %4 = getelementptr inbounds i8, ptr %.0.i, i64 56
  %5 = load ptr, ptr %4, align 8
  %.not.i = icmp eq ptr %5, null
  br i1 %.not.i, label %6, label %3

6:                                                ; preds = %3
  %7 = getelementptr inbounds i8, ptr %.0.i, i64 16
  %8 = load ptr, ptr %7, align 8
  %9 = getelementptr inbounds i8, ptr %8, i64 1456
  %10 = load ptr, ptr %9, align 8
  %11 = getelementptr inbounds i8, ptr %10, i64 8
  %12 = load ptr, ptr %11, align 8
  %.not8.i = icmp eq ptr %12, %.0.i
  br i1 %.not8.i, label %H5G_rootof.exit, label %13

13:                                               ; preds = %6
  store ptr %.0.i, ptr %11, align 8
  %.pre.i = load ptr, ptr %7, align 8
  %.phi.trans.insert.i = getelementptr inbounds i8, ptr %.pre.i, i64 1456
  %.pre9.i = load ptr, ptr %.phi.trans.insert.i, align 8
  br label %H5G_rootof.exit

H5G_rootof.exit:                                  ; preds = %6, %13
  %14 = phi ptr [ %.pre9.i, %13 ], [ %10, %6 ]
  %15 = tail call ptr @H5G_oloc(ptr noundef %14) #5
  store ptr %15, ptr %1, align 8
  %16 = icmp eq ptr %15, null
  br i1 %16, label %17, label %21

17:                                               ; preds = %H5G_rootof.exit
  %18 = load i64, ptr @H5E_ARGS_g, align 8
  %19 = load i64, ptr @H5E_BADVALUE_g, align 8
  %20 = tail call i32 (ptr, ptr, i32, i64, i64, ptr, ...) @H5E_printf_stack(ptr noundef nonnull @.str, ptr noundef nonnull @__func__.H5G_root_loc, i32 noundef 364, i64 noundef %18, i64 noundef %19, ptr noundef nonnull @.str.13) #5
  br label %35

21:                                               ; preds = %H5G_rootof.exit
  %22 = tail call ptr @H5G_nameof(ptr noundef %14) #5
  %23 = getelementptr inbounds i8, ptr %1, i64 8
  store ptr %22, ptr %23, align 8
  %24 = icmp eq ptr %22, null
  br i1 %24, label %25, label %29

25:                                               ; preds = %21
  %26 = load i64, ptr @H5E_ARGS_g, align 8
  %27 = load i64, ptr @H5E_BADVALUE_g, align 8
  %28 = tail call i32 (ptr, ptr, i32, i64, i64, ptr, ...) @H5E_printf_stack(ptr noundef nonnull @.str, ptr noundef nonnull @__func__.H5G_root_loc, i32 noundef 366, i64 noundef %26, i64 noundef %27, ptr noundef nonnull @.str.14) #5
  br label %35

29:                                               ; preds = %21
  %30 = tail call zeroext i1 @H5F_is_mount(ptr noundef %0) #5
  br i1 %30, label %35, label %31

31:                                               ; preds = %29
  %32 = load ptr, ptr %1, align 8
  store ptr %0, ptr %32, align 8
  %33 = load ptr, ptr %1, align 8
  %34 = getelementptr inbounds i8, ptr %33, i64 16
  store i8 0, ptr %34, align 8
  br label %35

35:                                               ; preds = %29, %31, %25, %17
  %.0 = phi i32 [ -1, %17 ], [ -1, %25 ], [ 0, %29 ], [ 0, %31 ]
  ret i32 %.0
}